target datalayout = "e-m:e-p270:32:32-p271:32:32-p272:64:64-i64:64-i128:128-f80:128-n8:16:32:64-S128"
target triple = "x86_64-pc-linux-gnu"

%struct.gmx_rmpbc = type { ptr, ptr, i32, i32, i32, ptr }

@stdout = external global ptr, align 8

; Function Attrs: mustprogress uwtable
define internal noundef i32 @_ZL14gmx_rmpbc_ePBCP9gmx_rmpbcPA3_Kf(ptr noundef %0, ptr noundef %1) #0 {
  %3 = alloca i32, align 4
  %4 = alloca ptr, align 8
  %5 = alloca ptr, align 8
  store ptr %0, ptr %4, align 8
  store ptr %1, ptr %5, align 8
  %6 = load ptr, ptr %4, align 8
  %7 = icmp ne ptr null, %6
  br i1 %7, label %8, label %17

8:                                                ; preds = %2
  %9 = load ptr, ptr %4, align 8
  %10 = getelementptr inbounds %struct.gmx_rmpbc, ptr %9, i32 0, i32 3
  %11 = load i32, ptr %10, align 4
  %12 = icmp ne i32 %11, 4
  br i1 %12, label %13, label %17

13:                                               ; preds = %8
  %14 = load ptr, ptr %4, align 8
  %15 = getelementptr inbounds %struct.gmx_rmpbc, ptr %14, i32 0, i32 3
  %16 = load i32, ptr %15, align 4
  store i32 %16, ptr %3, align 4
  br label %20

17:                                               ; preds = %8, %2
  %18 = load ptr, ptr %5, align 8
  %19 = call noundef i32 @_Z12guessPbcTypePA3_Kf(ptr noundef %18)
  store i32 %19, ptr %3, align 4
  br label %20

20:                                               ; preds = %17, %13
  %21 = load i32, ptr %3, align 4
  ret i32 %21
}

; Function Attrs: mustprogress uwtable
define void @_Z15gmx_rmpbc_applyP9gmx_rmpbciPA3_KfPA3_f(ptr noundef %0, i32 noundef %1, ptr noundef %2, ptr noundef %3) #0 {
  %5 = alloca ptr, align 8
  %6 = alloca i32, align 4
  %7 = alloca ptr, align 8
  %8 = alloca ptr, align 8
  %9 = alloca i32, align 4
  %10 = alloca ptr, align 8
  store ptr %0, ptr %5, align 8
  store i32 %1, ptr %6, align 4
  store ptr %2, ptr %7, align 8
  store ptr %3, ptr %8, align 8
  %11 = load ptr, ptr %5, align 8
  %12 = load ptr, ptr %7, align 8
  %13 = call noundef i32 @_ZL14gmx_rmpbc_ePBCP9gmx_rmpbcPA3_Kf(ptr noundef %11, ptr noundef %12)
  store i32 %13, ptr %9, align 4
  %14 = load ptr, ptr %5, align 8
  %15 = load i32, ptr %9, align 4
  %16 = load i32, ptr %6, align 4
  %17 = call noundef ptr @_ZL19gmx_rmpbc_get_graphP9gmx_rmpbc7PbcTypei(ptr noundef %14, i32 noundef %15, i32 noundef %16)
  store ptr %17, ptr %10, align 8
  %18 = load ptr, ptr %10, align 8
  %19 = icmp ne ptr %18, null
  br i1 %19, label %20, label %29

20:                                               ; preds = %4
  %21 = load ptr, ptr @stdout, align 8
  %22 = load ptr, ptr %10, align 8
  %23 = load i32, ptr %9, align 4
  %24 = load ptr, ptr %7, align 8
  %25 = load ptr, ptr %8, align 8
  call void @_Z9mk_mshiftP8_IO_FILEP7t_graph7PbcTypePA3_KfS6_(ptr noundef %21, ptr noundef %22, i32 noundef %23, ptr noundef %24, ptr noundef %25)
  %26 = load ptr, ptr %10, align 8
  %27 = load ptr, ptr %7, align 8
  %28 = load ptr, ptr %8, align 8
  call void @_Z10shift_selfPK7t_graphPA3_KfPA3_f(ptr noundef %26, ptr noundef %27, ptr noundef %28)
  br label %29

29:                                               ; preds = %20, %4
  ret void
}