; Function Attrs: mustprogress uwtable
define void @_Z15gmx_rmpbc_applyP9gmx_rmpbciPA3_KfPA3_f(ptr noundef %0, i32 noundef %1, ptr noundef %2, ptr noundef %3) local_unnamed_addr #0 {
  %.not.i = icmp eq ptr %0, null
  br i1 %.not.i, label %8, label %5

5:                                                ; preds = %4
  %6 = getelementptr inbounds i8, ptr %0, i64 20
  %7 = load i32, ptr %6, align 4
  %.not6.i = icmp eq i32 %7, 4
  br i1 %.not6.i, label %8, label %_ZL14gmx_rmpbc_ePBCP9gmx_rmpbcPA3_Kf.exit

8:                                                ; preds = %5, %4
  %9 = tail call noundef i32 @_Z12guessPbcTypePA3_Kf(ptr noundef %2)
  br label %_ZL14gmx_rmpbc_ePBCP9gmx_rmpbcPA3_Kf.exit

_ZL14gmx_rmpbc_ePBCP9gmx_rmpbcPA3_Kf.exit:        ; preds = %5, %8
  %.0.i = phi i32 [ %9, %8 ], [ %7, %5 ]
  %10 = tail call fastcc noundef ptr @_ZL19gmx_rmpbc_get_graphP9gmx_rmpbc7PbcTypei(ptr noundef %0, i32 noundef %.0.i, i32 noundef %1)
  %.not = icmp eq ptr %10, null
  br i1 %.not, label %13, label %11

11:                                               ; preds = %_ZL14gmx_rmpbc_ePBCP9gmx_rmpbcPA3_Kf.exit
  %12 = load ptr, ptr @stdout, align 8
  tail call void @_Z9mk_mshiftP8_IO_FILEP7t_graph7PbcTypePA3_KfS6_(ptr noundef %12, ptr noundef nonnull %10, i32 noundef %.0.i, ptr noundef %2, ptr noundef %3)
  tail call void @_Z10shift_selfPK7t_graphPA3_KfPA3_f(ptr noundef nonnull %10, ptr noundef %2, ptr noundef %3)
  br label %13

13:                                               ; preds = %11, %_ZL14gmx_rmpbc_ePBCP9gmx_rmpbcPA3_Kf.exit
  ret void
}